target datalayout = "e-m:e-p270:32:32-p271:32:32-p272:64:64-i64:64-i128:128-f80:128-n8:16:32:64-S128"
target triple = "x86_64-pc-linux-gnu"

@.str.36 = private unnamed_addr constant [31 x i8] c"(error object is not a string)\00", align 1

; Function Attrs: nounwind uwtable
define internal i32 @report(ptr noundef %0, i32 noundef %1) #0 {
  %3 = alloca ptr, align 8
  %4 = alloca i32, align 4
  %5 = alloca ptr, align 8
  store ptr %0, ptr %3, align 8, !tbaa !14
  store i32 %1, ptr %4, align 4, !tbaa !4
  %6 = load i32, ptr %4, align 4, !tbaa !4
  %7 = icmp ne i32 %6, 0
  br i1 %7, label %8, label %21

8:                                                ; preds = %2
  %9 = load ptr, ptr %3, align 8, !tbaa !14
  %10 = call i32 @lua_type(ptr noundef %9, i32 noundef -1)
  %11 = icmp eq i32 %10, 0
  br i1 %11, label %21, label %12

12:                                               ; preds = %8
  call void @llvm.lifetime.start.p0(i64 8, ptr %5) #5
  %13 = load ptr, ptr %3, align 8, !tbaa !14
  %14 = call ptr @lua_tolstring(ptr noundef %13, i32 noundef -1, ptr noundef null)
  store ptr %14, ptr %5, align 8, !tbaa !11
  %15 = load ptr, ptr %5, align 8, !tbaa !11
  %16 = icmp eq ptr %15, null
  br i1 %16, label %17, label %18

17:                                               ; preds = %12
  store ptr @.str.36, ptr %5, align 8, !tbaa !11
  br label %18

18:                                               ; preds = %17, %12
  %19 = load ptr, ptr %5, align 8, !tbaa !11
  call void @l_message(ptr noundef %19)
  %20 = load ptr, ptr %3, align 8, !tbaa !14
  call void @lua_settop(ptr noundef %20, i32 noundef -2)
  call void @llvm.lifetime.end.p0(i64 8, ptr %5) #5
  br label %21

21:                                               ; preds = %18, %8, %2
  %22 = load i32, ptr %4, align 4, !tbaa !4
  ret i32 %22
}

; Function Attrs: nounwind uwtable
define internal i32 @runcmdopt(ptr noundef %0, ptr noundef %1) #0 {
  %3 = alloca ptr, align 8
  %4 = alloca ptr, align 8
  %5 = alloca i32, align 4
  %6 = alloca ptr, align 8
  %7 = alloca i32, align 4
  store ptr %0, ptr %3, align 8, !tbaa !14
  store ptr %1, ptr %4, align 8, !tbaa !11
  call void @llvm.lifetime.start.p0(i64 4, ptr %5) #5
  store i32 0, ptr %5, align 4, !tbaa !4
  %8 = load ptr, ptr %4, align 8, !tbaa !11
  %9 = icmp ne ptr %8, null
  br i1 %9, label %10, label %54

10:                                               ; preds = %2
  %11 = load ptr, ptr %4, align 8, !tbaa !11
  %12 = load i8, ptr %11, align 1, !tbaa !13
  %13 = sext i8 %12 to i32
  %14 = icmp ne i32 %13, 0
  br i1 %14, label %15, label %54

15:                                               ; preds = %10
  br label %16

16:                                               ; preds = %43, %15
  call void @llvm.lifetime.start.p0(i64 8, ptr %6) #5
  %17 = load ptr, ptr %4, align 8, !tbaa !11
  %18 = call ptr @strchr(ptr noundef %17, i32 noundef 44) #6
  store ptr %18, ptr %6, align 8, !tbaa !11
  %19 = load i32, ptr %5, align 4, !tbaa !4
  %20 = add nsw i32 %19, 1
  store i32 %20, ptr %5, align 4, !tbaa !4
  %21 = load ptr, ptr %6, align 8, !tbaa !11
  %22 = icmp ne ptr %21, null
  br i1 %22, label %24, label %23

23:                                               ; preds = %16
  store i32 2, ptr %7, align 4
  br label %41

24:                                               ; preds = %16
  %25 = load ptr, ptr %6, align 8, !tbaa !11
  %26 = load ptr, ptr %4, align 8, !tbaa !11
  %27 = icmp eq ptr %25, %26
  br i1 %27, label %28, label %30

28:                                               ; preds = %24
  %29 = load ptr, ptr %3, align 8, !tbaa !14
  call void @lua_pushnil(ptr noundef %29)
  br label %38

30:                                               ; preds = %24
  %31 = load ptr, ptr %3, align 8, !tbaa !14
  %32 = load ptr, ptr %4, align 8, !tbaa !11
  %33 = load ptr, ptr %6, align 8, !tbaa !11
  %34 = load ptr, ptr %4, align 8, !tbaa !11
  %35 = ptrtoint ptr %33 to i64
  %36 = ptrtoint ptr %34 to i64
  %37 = sub i64 %35, %36
  call void @lua_pushlstring(ptr noundef %31, ptr noundef %32, i64 noundef %37)
  br label %38

38:                                               ; preds = %30, %28
  %39 = load ptr, ptr %6, align 8, !tbaa !11
  %40 = getelementptr inbounds i8, ptr %39, i64 1
  store ptr %40, ptr %4, align 8, !tbaa !11
  store i32 0, ptr %7, align 4
  br label %41

41:                                               ; preds = %38, %23
  call void @llvm.lifetime.end.p0(i64 8, ptr %6) #5
  %42 = load i32, ptr %7, align 4
  switch i32 %42, label %60 [
    i32 0, label %43
    i32 2, label %44
  ]

43:                                               ; preds = %41
  br label %16

44:                                               ; preds = %41
  %45 = load ptr, ptr %4, align 8, !tbaa !11
  %46 = load i8, ptr %45, align 1, !tbaa !13
  %47 = icmp ne i8 %46, 0
  br i1 %47, label %48, label %51

48:                                               ; preds = %44
  %49 = load ptr, ptr %3, align 8, !tbaa !14
  %50 = load ptr, ptr %4, align 8, !tbaa !11
  call void @lua_pushstring(ptr noundef %49, ptr noundef %50)
  br label %53

51:                                               ; preds = %44
  %52 = load ptr, ptr %3, align 8, !tbaa !14
  call void @lua_pushnil(ptr noundef %52)
  br label %53

53:                                               ; preds = %51, %48
  br label %54

54:                                               ; preds = %53, %10, %2
  %55 = load ptr, ptr %3, align 8, !tbaa !14
  %56 = load ptr, ptr %3, align 8, !tbaa !14
  %57 = load i32, ptr %5, align 4, !tbaa !4
  %58 = call i32 @lua_pcall(ptr noundef %56, i32 noundef %57, i32 noundef 0, i32 noundef 0)
  %59 = call i32 @report(ptr noundef %55, i32 noundef %58)
  store i32 1, ptr %7, align 4
  call void @llvm.lifetime.end.p0(i64 4, ptr %5) #5
  ret i32 %59

60:                                               ; preds = %41
  unreachable
}