; Function Attrs: nounwind uwtable
define internal fastcc i32 @runcmdopt(ptr noundef %0, ptr noundef %1) unnamed_addr #0 {
  %.not = icmp eq ptr %1, null
  br i1 %.not, label %20, label %3

3:                                                ; preds = %2
  %4 = load i8, ptr %1, align 1, !tbaa !9
  %.not25 = icmp eq i8 %4, 0
  br i1 %.not25, label %20, label %.preheader

.preheader:                                       ; preds = %3
  %5 = tail call ptr @strchr(ptr noundef nonnull dereferenceable(1) %1, i32 noundef 44) #11
  %.not2632 = icmp eq ptr %5, null
  br i1 %.not2632, label %._crit_edge.thread, label %.lr.ph

.lr.ph:                                           ; preds = %.preheader, %14
  %6 = phi i32 [ %17, %14 ], [ 1, %.preheader ]
  %7 = phi ptr [ %16, %14 ], [ %5, %.preheader ]
  %.02033 = phi ptr [ %15, %14 ], [ %1, %.preheader ]
  %8 = icmp eq ptr %7, %.02033
  br i1 %8, label %9, label %10

9:                                                ; preds = %.lr.ph
  tail call void @lua_pushnil(ptr noundef %0) #9
  br label %14

10:                                               ; preds = %.lr.ph
  %11 = ptrtoint ptr %7 to i64
  %12 = ptrtoint ptr %.02033 to i64
  %13 = sub i64 %11, %12
  tail call void @lua_pushlstring(ptr noundef %0, ptr noundef nonnull %.02033, i64 noundef %13) #9
  br label %14

14:                                               ; preds = %9, %10
  %15 = getelementptr inbounds nuw i8, ptr %7, i64 1
  %16 = tail call ptr @strchr(ptr noundef nonnull dereferenceable(1) %15, i32 noundef 44) #11
  %17 = add nuw nsw i32 %6, 1
  %.not26 = icmp eq ptr %16, null
  br i1 %.not26, label %._crit_edge, label %.lr.ph

._crit_edge:                                      ; preds = %14
  %.pre = load i8, ptr %15, align 1, !tbaa !9
  %18 = icmp eq i8 %.pre, 0
  br i1 %18, label %19, label %._crit_edge.thread

._crit_edge.thread:                               ; preds = %.preheader, %._crit_edge
  %.lcssa41 = phi i32 [ %17, %._crit_edge ], [ 1, %.preheader ]
  %.020.lcssa40 = phi ptr [ %15, %._crit_edge ], [ %1, %.preheader ]
  tail call void @lua_pushstring(ptr noundef %0, ptr noundef nonnull %.020.lcssa40) #9
  br label %20

19:                                               ; preds = %._crit_edge
  tail call void @lua_pushnil(ptr noundef %0) #9
  br label %20

20:                                               ; preds = %._crit_edge.thread, %19, %3, %2
  %.021 = phi i32 [ %.lcssa41, %._crit_edge.thread ], [ %17, %19 ], [ 0, %3 ], [ 0, %2 ]
  %21 = tail call i32 @lua_pcall(ptr noundef %0, i32 noundef %.021, i32 noundef 0, i32 noundef 0) #9
  %.not.i = icmp eq i32 %21, 0
  br i1 %.not.i, label %report.exit, label %22

22:                                               ; preds = %20
  %23 = tail call i32 @lua_type(ptr noundef %0, i32 noundef -1) #9
  %24 = icmp eq i32 %23, 0
  br i1 %24, label %report.exit, label %25

25:                                               ; preds = %22
  %26 = tail call ptr @lua_tolstring(ptr noundef %0, i32 noundef -1, ptr noundef null) #9
  %27 = icmp eq ptr %26, null
  %spec.store.select.i = select i1 %27, ptr @.str.36, ptr %26
  tail call fastcc void @l_message(ptr noundef nonnull %spec.store.select.i)
  tail call void @lua_settop(ptr noundef %0, i32 noundef -2) #9
  br label %report.exit

report.exit:                                      ; preds = %20, %22, %25
  ret i32 %21
}